target datalayout = "e-m:e-p270:32:32-p271:32:32-p272:64:64-i64:64-i128:128-f80:128-n8:16:32:64-S128"
target triple = "x86_64-pc-linux-gnu"

%struct._rtpstream_info = type { %struct._rtpstream_id, i8, ptr, [256 x ptr], ptr, i8, i32, i8, i32, i32, i32, ptr, ptr, %struct.nstime_t, %struct.nstime_t, %struct.nstime_t, i16, i8, i8, %struct._tap_rtp_stat_t, i8, ptr }
%struct._rtpstream_id = type { %struct._address, i16, %struct._address, i16, i32 }
%struct._address = type { i32, i32, ptr, ptr }
%struct.nstime_t = type { i64, i32 }
%struct._tap_rtp_stat_t = type { i8, i32, i16, i64, i64, double, [300 x %struct._bw_history_item], i16, i16, i32, i32, double, double, double, double, double, double, double, double, double, double, double, double, double, double, double, double, double, double, double, i32, i32, i32, i32, i32, i16, i32, i32, i32 }
%struct._bw_history_item = type { double, i32 }

; Function Attrs: inlinehint nounwind null_pointer_is_valid sspstrong uwtable
define internal zeroext i1 @addresses_equal(ptr noundef %0, ptr noundef %1) #10 {
  %3 = alloca i1, align 1
  %4 = alloca ptr, align 8
  %5 = alloca ptr, align 8
  store ptr %0, ptr %4, align 8
  store ptr %1, ptr %5, align 8
  %6 = load ptr, ptr %4, align 8
  %7 = getelementptr inbounds nuw %struct._address, ptr %6, i32 0, i32 0
  %8 = load i32, ptr %7, align 8
  %9 = load ptr, ptr %5, align 8
  %10 = getelementptr inbounds nuw %struct._address, ptr %9, i32 0, i32 0
  %11 = load i32, ptr %10, align 8
  %12 = icmp eq i32 %8, %11
  br i1 %12, label %13, label %40

13:                                               ; preds = %2
  %14 = load ptr, ptr %4, align 8
  %15 = getelementptr inbounds nuw %struct._address, ptr %14, i32 0, i32 1
  %16 = load i32, ptr %15, align 4
  %17 = load ptr, ptr %5, align 8
  %18 = getelementptr inbounds nuw %struct._address, ptr %17, i32 0, i32 1
  %19 = load i32, ptr %18, align 4
  %20 = icmp eq i32 %16, %19
  br i1 %20, label %21, label %40

21:                                               ; preds = %13
  %22 = load ptr, ptr %4, align 8
  %23 = getelementptr inbounds nuw %struct._address, ptr %22, i32 0, i32 1
  %24 = load i32, ptr %23, align 4
  %25 = icmp eq i32 %24, 0
  br i1 %25, label %39, label %26

26:                                               ; preds = %21
  %27 = load ptr, ptr %4, align 8
  %28 = getelementptr inbounds nuw %struct._address, ptr %27, i32 0, i32 2
  %29 = load ptr, ptr %28, align 8
  %30 = load ptr, ptr %5, align 8
  %31 = getelementptr inbounds nuw %struct._address, ptr %30, i32 0, i32 2
  %32 = load ptr, ptr %31, align 8
  %33 = load ptr, ptr %4, align 8
  %34 = getelementptr inbounds nuw %struct._address, ptr %33, i32 0, i32 1
  %35 = load i32, ptr %34, align 4
  %36 = sext i32 %35 to i64
  %37 = call i32 @memcmp(ptr noundef %29, ptr noundef %32, i64 noundef %36) #20
  %38 = icmp eq i32 %37, 0
  br i1 %38, label %39, label %40

39:                                               ; preds = %26, %21
  store i1 true, ptr %3, align 1
  br label %41

40:                                               ; preds = %26, %13, %2
  store i1 false, ptr %3, align 1
  br label %41

41:                                               ; preds = %40, %39
  %42 = load i1, ptr %3, align 1
  ret i1 %42
}

; Function Attrs: null_pointer_is_valid sspstrong uwtable
define hidden zeroext i1 @rtpstream_info_is_reverse(ptr noundef %0, ptr noundef %1) #2 {
  %3 = alloca i1, align 1
  %4 = alloca ptr, align 8
  %5 = alloca ptr, align 8
  store ptr %0, ptr %4, align 8
  store ptr %1, ptr %5, align 8
  %6 = load ptr, ptr %4, align 8
  %7 = icmp eq ptr %6, null
  br i1 %7, label %11, label %8

8:                                                ; preds = %2
  %9 = load ptr, ptr %5, align 8
  %10 = icmp eq ptr %9, null
  br i1 %10, label %11, label %12

11:                                               ; preds = %8, %2
  store i1 false, ptr %3, align 1
  br label %54

12:                                               ; preds = %8
  %13 = load ptr, ptr %4, align 8
  %14 = getelementptr inbounds nuw %struct._rtpstream_info, ptr %13, i32 0, i32 0
  %15 = getelementptr inbounds nuw %struct._rtpstream_id, ptr %14, i32 0, i32 0
  %16 = load ptr, ptr %5, align 8
  %17 = getelementptr inbounds nuw %struct._rtpstream_info, ptr %16, i32 0, i32 0
  %18 = getelementptr inbounds nuw %struct._rtpstream_id, ptr %17, i32 0, i32 2
  %19 = call zeroext i1 @addresses_equal(ptr noundef %15, ptr noundef %18)
  br i1 %19, label %20, label %53

20:                                               ; preds = %12
  %21 = load ptr, ptr %4, align 8
  %22 = getelementptr inbounds nuw %struct._rtpstream_info, ptr %21, i32 0, i32 0
  %23 = getelementptr inbounds nuw %struct._rtpstream_id, ptr %22, i32 0, i32 1
  %24 = load i16, ptr %23, align 8
  %25 = zext i16 %24 to i32
  %26 = load ptr, ptr %5, align 8
  %27 = getelementptr inbounds nuw %struct._rtpstream_info, ptr %26, i32 0, i32 0
  %28 = getelementptr inbounds nuw %struct._rtpstream_id, ptr %27, i32 0, i32 3
  %29 = load i16, ptr %28, align 8
  %30 = zext i16 %29 to i32
  %31 = icmp eq i32 %25, %30
  br i1 %31, label %32, label %53

32:                                               ; preds = %20
  %33 = load ptr, ptr %4, align 8
  %34 = getelementptr inbounds nuw %struct._rtpstream_info, ptr %33, i32 0, i32 0
  %35 = getelementptr inbounds nuw %struct._rtpstream_id, ptr %34, i32 0, i32 2
  %36 = load ptr, ptr %5, align 8
  %37 = getelementptr inbounds nuw %struct._rtpstream_info, ptr %36, i32 0, i32 0
  %38 = getelementptr inbounds nuw %struct._rtpstream_id, ptr %37, i32 0, i32 0
  %39 = call zeroext i1 @addresses_equal(ptr noundef %35, ptr noundef %38)
  br i1 %39, label %40, label %53

40:                                               ; preds = %32
  %41 = load ptr, ptr %4, align 8
  %42 = getelementptr inbounds nuw %struct._rtpstream_info, ptr %41, i32 0, i32 0
  %43 = getelementptr inbounds nuw %struct._rtpstream_id, ptr %42, i32 0, i32 3
  %44 = load i16, ptr %43, align 8
  %45 = zext i16 %44 to i32
  %46 = load ptr, ptr %5, align 8
  %47 = getelementptr inbounds nuw %struct._rtpstream_info, ptr %46, i32 0, i32 0
  %48 = getelementptr inbounds nuw %struct._rtpstream_id, ptr %47, i32 0, i32 1
  %49 = load i16, ptr %48, align 8
  %50 = zext i16 %49 to i32
  %51 = icmp eq i32 %45, %50
  br i1 %51, label %52, label %53

52:                                               ; preds = %40
  store i1 true, ptr %3, align 1
  br label %54

53:                                               ; preds = %40, %32, %20, %12
  store i1 false, ptr %3, align 1
  br label %54

54:                                               ; preds = %53, %52, %11
  %55 = load i1, ptr %3, align 1
  ret i1 %55
}