; Function Attrs: mustprogress nofree nounwind null_pointer_is_valid sspstrong willreturn memory(read, inaccessiblemem: none) uwtable
define hidden noundef zeroext i1 @rtpstream_info_is_reverse(ptr noundef readonly captures(address_is_null) %0, ptr noundef readonly captures(address_is_null) %1) local_unnamed_addr #6 {
  %3 = icmp eq ptr %0, null
  %4 = icmp eq ptr %1, null
  %or.cond = or i1 %3, %4
  br i1 %or.cond, label %57, label %5

5:                                                ; preds = %2
  %6 = getelementptr inbounds nuw i8, ptr %1, i64 32
  %7 = load i32, ptr %0, align 8
  %8 = load i32, ptr %6, align 8
  %9 = icmp eq i32 %7, %8
  br i1 %9, label %10, label %addresses_equal.exit

10:                                               ; preds = %5
  %11 = getelementptr inbounds nuw i8, ptr %0, i64 4
  %12 = load i32, ptr %11, align 4
  %13 = getelementptr inbounds nuw i8, ptr %1, i64 36
  %14 = load i32, ptr %13, align 4
  %15 = icmp eq i32 %12, %14
  br i1 %15, label %16, label %addresses_equal.exit

16:                                               ; preds = %10
  %17 = icmp eq i32 %12, 0
  br i1 %17, label %25, label %18

18:                                               ; preds = %16
  %19 = getelementptr inbounds nuw i8, ptr %0, i64 8
  %20 = load ptr, ptr %19, align 8
  %21 = getelementptr inbounds nuw i8, ptr %1, i64 40
  %22 = load ptr, ptr %21, align 8
  %23 = sext i32 %12 to i64
  %bcmp.i = tail call i32 @bcmp(ptr %20, ptr %22, i64 %23)
  %24 = icmp eq i32 %bcmp.i, 0
  br i1 %24, label %25, label %addresses_equal.exit

25:                                               ; preds = %18, %16
  %26 = getelementptr inbounds nuw i8, ptr %0, i64 24
  %27 = load i16, ptr %26, align 8
  %28 = getelementptr inbounds nuw i8, ptr %1, i64 56
  %29 = load i16, ptr %28, align 8
  %30 = icmp eq i16 %27, %29
  br i1 %30, label %31, label %addresses_equal.exit

31:                                               ; preds = %25
  %32 = getelementptr inbounds nuw i8, ptr %0, i64 32
  %33 = load i32, ptr %32, align 8
  %34 = load i32, ptr %1, align 8
  %35 = icmp eq i32 %33, %34
  br i1 %35, label %36, label %addresses_equal.exit

36:                                               ; preds = %31
  %37 = getelementptr inbounds nuw i8, ptr %0, i64 36
  %38 = load i32, ptr %37, align 4
  %39 = getelementptr inbounds nuw i8, ptr %1, i64 4
  %40 = load i32, ptr %39, align 4
  %41 = icmp eq i32 %38, %40
  br i1 %41, label %42, label %addresses_equal.exit

42:                                               ; preds = %36
  %43 = icmp eq i32 %38, 0
  br i1 %43, label %51, label %44

44:                                               ; preds = %42
  %45 = getelementptr inbounds nuw i8, ptr %0, i64 40
  %46 = load ptr, ptr %45, align 8
  %47 = getelementptr inbounds nuw i8, ptr %1, i64 8
  %48 = load ptr, ptr %47, align 8
  %49 = sext i32 %38 to i64
  %bcmp.i15 = tail call i32 @bcmp(ptr %46, ptr %48, i64 %49)
  %50 = icmp eq i32 %bcmp.i15, 0
  br i1 %50, label %51, label %addresses_equal.exit

51:                                               ; preds = %44, %42
  %52 = getelementptr inbounds nuw i8, ptr %0, i64 56
  %53 = load i16, ptr %52, align 8
  %54 = getelementptr inbounds nuw i8, ptr %1, i64 24
  %55 = load i16, ptr %54, align 8
  %56 = icmp eq i16 %53, %55
  br i1 %56, label %57, label %addresses_equal.exit

addresses_equal.exit:                             ; preds = %44, %36, %31, %18, %10, %5, %51, %25
  br label %57

57:                                               ; preds = %51, %2, %addresses_equal.exit
  %.0 = phi i1 [ false, %addresses_equal.exit ], [ false, %2 ], [ true, %51 ]
  ret i1 %.0
}